target datalayout = "e-m:e-p270:32:32-p271:32:32-p272:64:64-i64:64-i128:128-f80:128-n8:16:32:64-S128"
target triple = "x86_64-pc-linux-gnu"

%struct.JsonLexContext = type { ptr, i64, i32, ptr, ptr, ptr, i8, i32, i32, i32, i32, ptr, ptr, ptr, i8, ptr, ptr }
%struct.ElementsState = type { ptr, ptr, ptr, ptr, ptr, ptr, i8, i8, ptr }

@CurrentMemoryContext = external global ptr, align 8

; Function Attrs: inlinehint nounwind uwtable
define internal i64 @PointerGetDatum(ptr noundef %0) #3 {
  %2 = alloca ptr, align 8
  store ptr %0, ptr %2, align 8
  %3 = load ptr, ptr %2, align 8
  %4 = ptrtoint ptr %3 to i64
  ret i64 %4
}

; Function Attrs: inlinehint nounwind uwtable
define internal ptr @MemoryContextSwitchTo(ptr noundef %0) #3 {
  %2 = alloca ptr, align 8
  %3 = alloca ptr, align 8
  store ptr %0, ptr %2, align 8
  call void @llvm.lifetime.start.p0(i64 8, ptr %3) #10
  %4 = load ptr, ptr @CurrentMemoryContext, align 8
  store ptr %4, ptr %3, align 8
  %5 = load ptr, ptr %2, align 8
  store ptr %5, ptr @CurrentMemoryContext, align 8
  %6 = load ptr, ptr %3, align 8
  call void @llvm.lifetime.end.p0(i64 8, ptr %3) #10
  ret ptr %6
}

; Function Attrs: nounwind uwtable
define internal i32 @elements_array_element_end(ptr noundef %0, i1 noundef zeroext %1) #0 {
  %3 = alloca i32, align 4
  %4 = alloca ptr, align 8
  %5 = alloca i8, align 1
  %6 = alloca ptr, align 8
  %7 = alloca ptr, align 8
  %8 = alloca i32, align 4
  %9 = alloca ptr, align 8
  %10 = alloca ptr, align 8
  %11 = alloca [1 x i64], align 8
  %12 = alloca [1 x i8], align 1
  %13 = alloca i32, align 4
  store ptr %0, ptr %4, align 8
  %14 = zext i1 %1 to i8
  store i8 %14, ptr %5, align 1
  call void @llvm.lifetime.start.p0(i64 8, ptr %6) #10
  %15 = load ptr, ptr %4, align 8
  store ptr %15, ptr %6, align 8
  call void @llvm.lifetime.start.p0(i64 8, ptr %7) #10
  call void @llvm.lifetime.start.p0(i64 4, ptr %8) #10
  call void @llvm.lifetime.start.p0(i64 8, ptr %9) #10
  call void @llvm.lifetime.start.p0(i64 8, ptr %10) #10
  call void @llvm.lifetime.start.p0(i64 8, ptr %11) #10
  call void @llvm.lifetime.start.p0(i64 1, ptr %12) #10
  call void @llvm.memset.p0.i64(ptr align 1 %12, i8 0, i64 1, i1 false)
  %16 = load ptr, ptr %6, align 8
  %17 = getelementptr inbounds nuw %struct.ElementsState, ptr %16, i32 0, i32 0
  %18 = load ptr, ptr %17, align 8
  %19 = getelementptr inbounds nuw %struct.JsonLexContext, ptr %18, i32 0, i32 8
  %20 = load i32, ptr %19, align 8
  %21 = icmp ne i32 %20, 1
  br i1 %21, label %22, label %23

22:                                               ; preds = %2
  store i32 0, ptr %3, align 4
  store i32 1, ptr %13, align 4
  br label %90

23:                                               ; preds = %2
  %24 = load ptr, ptr %6, align 8
  %25 = getelementptr inbounds nuw %struct.ElementsState, ptr %24, i32 0, i32 4
  %26 = load ptr, ptr %25, align 8
  %27 = call ptr @MemoryContextSwitchTo(ptr noundef %26)
  store ptr %27, ptr %7, align 8
  %28 = load i8, ptr %5, align 1, !range !4, !noundef !5
  %29 = trunc i8 %28 to i1
  br i1 %29, label %30, label %38

30:                                               ; preds = %23
  %31 = load ptr, ptr %6, align 8
  %32 = getelementptr inbounds nuw %struct.ElementsState, ptr %31, i32 0, i32 6
  %33 = load i8, ptr %32, align 8, !range !4, !noundef !5
  %34 = trunc i8 %33 to i1
  br i1 %34, label %35, label %38

35:                                               ; preds = %30
  %36 = getelementptr inbounds [1 x i8], ptr %12, i64 0, i64 0
  store i8 1, ptr %36, align 1
  %37 = getelementptr inbounds [1 x i64], ptr %11, i64 0, i64 0
  store i64 0, ptr %37, align 8
  br label %74

38:                                               ; preds = %30, %23
  %39 = load ptr, ptr %6, align 8
  %40 = getelementptr inbounds nuw %struct.ElementsState, ptr %39, i32 0, i32 7
  %41 = load i8, ptr %40, align 1, !range !4, !noundef !5
  %42 = trunc i8 %41 to i1
  br i1 %42, label %43, label %52

43:                                               ; preds = %38
  %44 = load ptr, ptr %6, align 8
  %45 = getelementptr inbounds nuw %struct.ElementsState, ptr %44, i32 0, i32 8
  %46 = load ptr, ptr %45, align 8
  %47 = call ptr @cstring_to_text(ptr noundef %46)
  %48 = call i64 @PointerGetDatum(ptr noundef %47)
  %49 = getelementptr inbounds [1 x i64], ptr %11, i64 0, i64 0
  store i64 %48, ptr %49, align 8
  %50 = load ptr, ptr %6, align 8
  %51 = getelementptr inbounds nuw %struct.ElementsState, ptr %50, i32 0, i32 7
  store i8 0, ptr %51, align 1
  br label %73

52:                                               ; preds = %38
  %53 = load ptr, ptr %6, align 8
  %54 = getelementptr inbounds nuw %struct.ElementsState, ptr %53, i32 0, i32 0
  %55 = load ptr, ptr %54, align 8
  %56 = getelementptr inbounds nuw %struct.JsonLexContext, ptr %55, i32 0, i32 5
  %57 = load ptr, ptr %56, align 8
  %58 = load ptr, ptr %6, align 8
  %59 = getelementptr inbounds nuw %struct.ElementsState, ptr %58, i32 0, i32 5
  %60 = load ptr, ptr %59, align 8
  %61 = ptrtoint ptr %57 to i64
  %62 = ptrtoint ptr %60 to i64
  %63 = sub i64 %61, %62
  %64 = trunc i64 %63 to i32
  store i32 %64, ptr %8, align 4
  %65 = load ptr, ptr %6, align 8
  %66 = getelementptr inbounds nuw %struct.ElementsState, ptr %65, i32 0, i32 5
  %67 = load ptr, ptr %66, align 8
  %68 = load i32, ptr %8, align 4
  %69 = call ptr @cstring_to_text_with_len(ptr noundef %67, i32 noundef %68)
  store ptr %69, ptr %9, align 8
  %70 = load ptr, ptr %9, align 8
  %71 = call i64 @PointerGetDatum(ptr noundef %70)
  %72 = getelementptr inbounds [1 x i64], ptr %11, i64 0, i64 0
  store i64 %71, ptr %72, align 8
  br label %73

73:                                               ; preds = %52, %43
  br label %74

74:                                               ; preds = %73, %35
  %75 = load ptr, ptr %6, align 8
  %76 = getelementptr inbounds nuw %struct.ElementsState, ptr %75, i32 0, i32 3
  %77 = load ptr, ptr %76, align 8
  %78 = getelementptr inbounds [1 x i64], ptr %11, i64 0, i64 0
  %79 = getelementptr inbounds [1 x i8], ptr %12, i64 0, i64 0
  %80 = call ptr @heap_form_tuple(ptr noundef %77, ptr noundef %78, ptr noundef %79)
  store ptr %80, ptr %10, align 8
  %81 = load ptr, ptr %6, align 8
  %82 = getelementptr inbounds nuw %struct.ElementsState, ptr %81, i32 0, i32 2
  %83 = load ptr, ptr %82, align 8
  %84 = load ptr, ptr %10, align 8
  call void @tuplestore_puttuple(ptr noundef %83, ptr noundef %84)
  %85 = load ptr, ptr %7, align 8
  %86 = call ptr @MemoryContextSwitchTo(ptr noundef %85)
  %87 = load ptr, ptr %6, align 8
  %88 = getelementptr inbounds nuw %struct.ElementsState, ptr %87, i32 0, i32 4
  %89 = load ptr, ptr %88, align 8
  call void @MemoryContextReset(ptr noundef %89)
  store i32 0, ptr %3, align 4
  store i32 1, ptr %13, align 4
  br label %90

90:                                               ; preds = %74, %22
  call void @llvm.lifetime.end.p0(i64 1, ptr %12) #10
  call void @llvm.lifetime.end.p0(i64 8, ptr %11) #10
  call void @llvm.lifetime.end.p0(i64 8, ptr %10) #10
  call void @llvm.lifetime.end.p0(i64 8, ptr %9) #10
  call void @llvm.lifetime.end.p0(i64 4, ptr %8) #10
  call void @llvm.lifetime.end.p0(i64 8, ptr %7) #10
  call void @llvm.lifetime.end.p0(i64 8, ptr %6) #10
  %91 = load i32, ptr %3, align 4
  ret i32 %91
}