; Function Attrs: nounwind uwtable
define internal noundef i32 @elements_array_element_end(ptr noundef captures(none) %0, i1 noundef zeroext %1) #0 {
  %3 = alloca [1 x i64], align 8
  %4 = alloca [1 x i8], align 1
  call void @llvm.lifetime.start.p0(i64 8, ptr nonnull %3) #15
  call void @llvm.lifetime.start.p0(i64 1, ptr nonnull %4) #15
  store i8 0, ptr %4, align 1
  %5 = load ptr, ptr %0, align 8
  %6 = getelementptr inbounds nuw i8, ptr %5, i64 56
  %7 = load i32, ptr %6, align 8
  %.not = icmp eq i32 %7, 1
  br i1 %.not, label %8, label %45

8:                                                ; preds = %2
  %9 = getelementptr inbounds nuw i8, ptr %0, i64 32
  %10 = load ptr, ptr %9, align 8
  %11 = load ptr, ptr @CurrentMemoryContext, align 8
  store ptr %10, ptr @CurrentMemoryContext, align 8
  br i1 %1, label %12, label %17

12:                                               ; preds = %8
  %13 = getelementptr inbounds nuw i8, ptr %0, i64 48
  %14 = load i8, ptr %13, align 8, !range !4, !noundef !5
  %15 = trunc nuw i8 %14 to i1
  br i1 %15, label %16, label %17

16:                                               ; preds = %12
  store i8 1, ptr %4, align 1
  store i64 0, ptr %3, align 8
  br label %38

17:                                               ; preds = %12, %8
  %18 = getelementptr inbounds nuw i8, ptr %0, i64 49
  %19 = load i8, ptr %18, align 1, !range !4, !noundef !5
  %20 = trunc nuw i8 %19 to i1
  br i1 %20, label %21, label %26

21:                                               ; preds = %17
  %22 = getelementptr inbounds nuw i8, ptr %0, i64 56
  %23 = load ptr, ptr %22, align 8
  %24 = tail call ptr @cstring_to_text(ptr noundef %23) #15
  %25 = ptrtoint ptr %24 to i64
  store i64 %25, ptr %3, align 8
  store i8 0, ptr %18, align 1
  br label %38

26:                                               ; preds = %17
  %27 = load ptr, ptr %0, align 8
  %28 = getelementptr inbounds nuw i8, ptr %27, i64 40
  %29 = load ptr, ptr %28, align 8
  %30 = getelementptr inbounds nuw i8, ptr %0, i64 40
  %31 = load ptr, ptr %30, align 8
  %32 = ptrtoint ptr %29 to i64
  %33 = ptrtoint ptr %31 to i64
  %34 = sub i64 %32, %33
  %35 = trunc i64 %34 to i32
  %36 = tail call ptr @cstring_to_text_with_len(ptr noundef %31, i32 noundef %35) #15
  %37 = ptrtoint ptr %36 to i64
  store i64 %37, ptr %3, align 8
  br label %38

38:                                               ; preds = %21, %26, %16
  %39 = getelementptr inbounds nuw i8, ptr %0, i64 24
  %40 = load ptr, ptr %39, align 8
  %41 = call ptr @heap_form_tuple(ptr noundef %40, ptr noundef nonnull %3, ptr noundef nonnull %4) #15
  %42 = getelementptr inbounds nuw i8, ptr %0, i64 16
  %43 = load ptr, ptr %42, align 8
  call void @tuplestore_puttuple(ptr noundef %43, ptr noundef %41) #15
  store ptr %11, ptr @CurrentMemoryContext, align 8
  %44 = load ptr, ptr %9, align 8
  call void @MemoryContextReset(ptr noundef %44) #15
  br label %45

45:                                               ; preds = %2, %38
  call void @llvm.lifetime.end.p0(i64 1, ptr nonnull %4) #15
  call void @llvm.lifetime.end.p0(i64 8, ptr nonnull %3) #15
  ret i32 0
}